target datalayout = "e-m:e-p270:32:32-p271:32:32-p272:64:64-i64:64-i128:128-f80:128-n8:16:32:64-S128"
target triple = "x86_64-unknown-linux-gnu"

%struct.pcpu_block_md = type { i32, i32, i32, i32, i32, i32, i32, i32 }

; Function Attrs: fn_ret_thunk_extern nofree norecurse nosync nounwind null_pointer_is_valid memory(read, argmem: readwrite, inaccessiblemem: none)
define internal fastcc void @pcpu_next_fit_region(ptr nocapture noundef readonly %0, i32 noundef %1, i32 noundef %2, ptr nocapture noundef %3, ptr nocapture noundef %4) unnamed_addr #16 align 16 {
  %6 = load i32, ptr %3, align 4
  %7 = ashr i32 %6, 10
  store i32 0, ptr %4, align 4
  %8 = getelementptr inbounds i8, ptr %0, i64 108
  %9 = load i32, ptr %8, align 4
  %10 = icmp slt i32 %7, %9
  br i1 %10, label %11, label %88

11:                                               ; preds = %5
  %12 = getelementptr inbounds i8, ptr %0, i64 80
  %13 = load ptr, ptr %12, align 16
  %14 = ashr i32 %6, 10
  %15 = sext i32 %14 to i64
  %16 = getelementptr %struct.pcpu_block_md, ptr %13, i64 %15
  %17 = and i32 %6, 1023
  %18 = add i32 %2, -1
  %19 = sub i32 0, %2
  %20 = add i32 %2, 1023
  br label %21

21:                                               ; preds = %82, %11
  %22 = phi i32 [ %7, %11 ], [ %85, %82 ]
  %23 = phi ptr [ %16, %11 ], [ %84, %82 ]
  %24 = phi i32 [ %17, %11 ], [ %83, %82 ]
  %25 = load i32, ptr %4, align 4
  %26 = icmp eq i32 %25, 0
  br i1 %26, label %35, label %27

27:                                               ; preds = %21
  %28 = getelementptr inbounds i8, ptr %23, i64 16
  %29 = load i32, ptr %28, align 4
  %30 = add i32 %29, %25
  store i32 %30, ptr %4, align 4
  %31 = icmp slt i32 %30, %1
  br i1 %31, label %32, label %93

32:                                               ; preds = %27
  %33 = load i32, ptr %28, align 4
  %34 = icmp eq i32 %33, 1024
  br i1 %34, label %82, label %35

35:                                               ; preds = %32, %21
  %36 = getelementptr inbounds i8, ptr %23, i64 12
  %37 = load i32, ptr %36, align 4
  %38 = add i32 %18, %37
  %39 = and i32 %38, %19
  %40 = sub i32 %39, %37
  store i32 %40, ptr %4, align 4
  %41 = getelementptr inbounds i8, ptr %23, i64 8
  %42 = load i32, ptr %41, align 4
  %43 = icmp eq i32 %42, 0
  br i1 %43, label %71, label %44

44:                                               ; preds = %35
  %45 = load i32, ptr %36, align 4
  %46 = icmp slt i32 %45, %24
  %47 = add i32 %40, %1
  %48 = icmp slt i32 %42, %47
  %49 = select i1 %46, i1 true, i1 %48
  br i1 %49, label %71, label %50

50:                                               ; preds = %44
  %51 = load i32, ptr %23, align 4
  %52 = icmp eq i32 %51, 0
  br i1 %52, label %61, label %53

53:                                               ; preds = %50
  %54 = getelementptr inbounds i8, ptr %23, i64 4
  %55 = load i32, ptr %54, align 4
  %56 = icmp sgt i32 %45, %55
  %57 = icmp slt i32 %51, %1
  %58 = and i1 %57, %56
  br i1 %58, label %59, label %61

59:                                               ; preds = %53
  %60 = add i32 %55, %51
  br label %64

61:                                               ; preds = %53, %50
  %62 = getelementptr inbounds i8, ptr %23, i64 24
  %63 = load i32, ptr %62, align 4
  br label %64

64:                                               ; preds = %61, %59
  %65 = phi i32 [ %60, %59 ], [ %63, %61 ]
  %66 = add i32 %40, %1
  %67 = add i32 %66, %45
  %68 = sub i32 %67, %65
  store i32 %68, ptr %4, align 4
  %69 = shl i32 %22, 10
  %70 = add i32 %65, %69
  br label %91

71:                                               ; preds = %44, %35
  %72 = getelementptr inbounds i8, ptr %23, i64 20
  %73 = load i32, ptr %72, align 4
  %74 = sub i32 %20, %73
  %75 = and i32 %74, %19
  store i32 %75, ptr %3, align 4
  %76 = sub i32 1024, %75
  store i32 %76, ptr %4, align 4
  %77 = load i32, ptr %3, align 4
  %78 = shl i32 %22, 10
  %79 = add i32 %77, %78
  store i32 %79, ptr %3, align 4
  %80 = load i32, ptr %4, align 4
  %81 = icmp slt i32 %80, %1
  br i1 %81, label %82, label %93

82:                                               ; preds = %71, %32
  %83 = phi i32 [ %24, %32 ], [ 0, %71 ]
  %84 = getelementptr i8, ptr %23, i64 32
  %85 = add nsw i32 %22, 1
  %86 = load i32, ptr %8, align 4
  %87 = icmp slt i32 %85, %86
  br i1 %87, label %21, label %88, !llvm.loop !160

88:                                               ; preds = %82, %5
  %89 = phi i32 [ %9, %5 ], [ %86, %82 ]
  %90 = shl i32 %89, 10
  br label %91

91:                                               ; preds = %88, %64
  %92 = phi i32 [ %90, %88 ], [ %70, %64 ]
  store i32 %92, ptr %3, align 4
  br label %93

93:                                               ; preds = %91, %71, %27
  ret void
}

; Function Attrs: fn_ret_thunk_extern nounwind null_pointer_is_valid
define internal fastcc i32 @pcpu_find_block_fit(ptr noundef %0, i32 noundef %1, i64 noundef %2, i1 noundef zeroext %3) unnamed_addr #1 align 16 {
  %5 = alloca i32, align 4
  %6 = alloca i32, align 4
  call void @llvm.lifetime.start.p0(i64 4, ptr nonnull %5) #23
  store i32 0, ptr %5, align 4, !annotation !13
  call void @llvm.lifetime.start.p0(i64 4, ptr nonnull %6) #23
  store i32 0, ptr %6, align 4, !annotation !13
  %7 = getelementptr inbounds i8, ptr %0, i64 32
  %8 = load i32, ptr %7, align 4
  %9 = trunc i64 %2 to i32
  %10 = add i32 %9, -1
  %11 = add i32 %10, %8
  %12 = sub i32 0, %9
  %13 = and i32 %11, %12
  %14 = sub i32 %1, %8
  %15 = add i32 %14, %13
  %16 = getelementptr inbounds i8, ptr %0, i64 28
  %17 = load i32, ptr %16, align 4
  %18 = icmp sgt i32 %15, %17
  br i1 %18, label %82, label %19

19:                                               ; preds = %4
  %20 = getelementptr inbounds i8, ptr %0, i64 20
  %21 = load i32, ptr %20, align 4
  %22 = icmp eq i32 %21, 0
  br i1 %22, label %31, label %23

23:                                               ; preds = %19
  %24 = getelementptr inbounds i8, ptr %0, i64 24
  %25 = load i32, ptr %24, align 4
  %26 = icmp sgt i32 %8, %25
  %27 = icmp slt i32 %21, %1
  %28 = and i1 %27, %26
  br i1 %28, label %29, label %31

29:                                               ; preds = %23
  %30 = add i32 %25, %21
  br label %34

31:                                               ; preds = %23, %19
  %32 = getelementptr inbounds i8, ptr %0, i64 44
  %33 = load i32, ptr %32, align 4
  br label %34

34:                                               ; preds = %31, %29
  %35 = phi i32 [ %30, %29 ], [ %33, %31 ]
  store i32 %35, ptr %5, align 4
  store i32 0, ptr %6, align 4
  call fastcc void @pcpu_next_fit_region(ptr noundef %0, i32 noundef %1, i32 noundef %9, ptr noundef nonnull %5, ptr noundef nonnull %6)
  %36 = getelementptr inbounds i8, ptr %0, i64 108
  %37 = load i32, ptr %5, align 4
  %38 = load i32, ptr %36, align 4
  %39 = shl i32 %38, 10
  %40 = icmp slt i32 %37, %39
  %41 = and i1 %40, %3
  br i1 %41, label %42, label %75

42:                                               ; preds = %34
  %43 = getelementptr inbounds i8, ptr %0, i64 120
  br label %44

44:                                               ; preds = %69, %42
  %45 = phi i32 [ %37, %42 ], [ %70, %69 ]
  %46 = phi i32 [ 0, %42 ], [ %68, %69 ]
  %47 = load i32, ptr %6, align 4
  %48 = add i32 %47, %45
  %49 = shl i32 %48, 2
  %50 = sext i32 %49 to i64
  %51 = add nsw i64 %50, 4095
  %52 = lshr i64 %51, 12
  %53 = trunc i64 %52 to i32
  %54 = and i64 %52, 4294967295
  %55 = shl i32 %45, 2
  %56 = ashr i32 %55, 12
  %57 = zext i32 %56 to i64
  %58 = tail call i64 @_find_next_zero_bit(ptr noundef %43, i64 noundef %54, i64 noundef %57) #23
  %59 = trunc i64 %58 to i32
  %60 = icmp ult i32 %59, %53
  br i1 %60, label %61, label %67

61:                                               ; preds = %44
  %62 = add i64 %58, 1
  %63 = and i64 %62, 4294967295
  %64 = tail call i64 @_find_next_bit(ptr noundef %43, i64 noundef %54, i64 noundef %63) #23
  %65 = trunc i64 %64 to i32
  %66 = shl i32 %65, 10
  br label %67

67:                                               ; preds = %61, %44
  %68 = phi i32 [ %46, %44 ], [ %66, %61 ]
  br i1 %60, label %69, label %75

69:                                               ; preds = %67
  store i32 %68, ptr %5, align 4
  store i32 0, ptr %6, align 4
  call fastcc void @pcpu_next_fit_region(ptr noundef %0, i32 noundef %1, i32 noundef %9, ptr noundef nonnull %5, ptr noundef nonnull %6)
  %70 = load i32, ptr %5, align 4
  %71 = load i32, ptr %36, align 4
  %72 = shl i32 %71, 10
  %73 = icmp slt i32 %70, %72
  %74 = and i1 %73, %3
  br i1 %74, label %44, label %75, !llvm.loop !145

75:                                               ; preds = %69, %67, %34
  %76 = phi i32 [ %37, %34 ], [ %45, %67 ], [ %70, %69 ]
  %77 = getelementptr inbounds i8, ptr %0, i64 108
  %78 = load i32, ptr %77, align 4
  %79 = shl i32 %78, 10
  %80 = icmp eq i32 %76, %79
  %81 = select i1 %80, i32 -1, i32 %76
  br label %82

82:                                               ; preds = %75, %4
  %83 = phi i32 [ -1, %4 ], [ %81, %75 ]
  call void @llvm.lifetime.end.p0(i64 4, ptr nonnull %6) #23
  call void @llvm.lifetime.end.p0(i64 4, ptr nonnull %5) #23
  ret i32 %83
}