; Function Attrs: fn_ret_thunk_extern nounwind null_pointer_is_valid
define internal fastcc i32 @pcpu_find_block_fit(ptr noundef %0, i32 noundef %1, i64 noundef %2, i1 noundef zeroext %3) unnamed_addr #1 align 16 {
  %5 = getelementptr inbounds i8, ptr %0, i64 32
  %6 = load i32, ptr %5, align 4
  %7 = trunc i64 %2 to i32
  %8 = add i32 %7, -1
  %9 = add i32 %6, %8
  %10 = sub i32 0, %7
  %11 = and i32 %9, %10
  %12 = sub i32 %1, %6
  %13 = add i32 %12, %11
  %14 = getelementptr inbounds i8, ptr %0, i64 28
  %15 = load i32, ptr %14, align 4
  %16 = icmp sgt i32 %13, %15
  br i1 %16, label %206, label %17

17:                                               ; preds = %4
  %18 = getelementptr inbounds i8, ptr %0, i64 20
  %19 = load i32, ptr %18, align 4
  %20 = icmp eq i32 %19, 0
  br i1 %20, label %29, label %21

21:                                               ; preds = %17
  %22 = getelementptr inbounds i8, ptr %0, i64 24
  %23 = load i32, ptr %22, align 4
  %24 = icmp sgt i32 %6, %23
  %25 = icmp slt i32 %19, %1
  %26 = and i1 %25, %24
  br i1 %26, label %27, label %29

27:                                               ; preds = %21
  %28 = add i32 %23, %19
  br label %32

29:                                               ; preds = %21, %17
  %30 = getelementptr inbounds i8, ptr %0, i64 44
  %31 = load i32, ptr %30, align 4
  br label %32

32:                                               ; preds = %29, %27
  %33 = phi i32 [ %28, %27 ], [ %31, %29 ]
  %34 = ashr i32 %33, 10
  %35 = getelementptr inbounds i8, ptr %0, i64 108
  %36 = load i32, ptr %35, align 4
  %37 = icmp slt i32 %34, %36
  br i1 %37, label %38, label %.loopexit11.i

38:                                               ; preds = %32
  %39 = getelementptr inbounds i8, ptr %0, i64 80
  %40 = load ptr, ptr %39, align 16
  %41 = sext i32 %34 to i64
  %42 = getelementptr %struct.pcpu_block_md, ptr %40, i64 %41
  %43 = and i32 %33, 1023
  %44 = add i32 %7, 1023
  br label %45

45:                                               ; preds = %101, %38
  %.015 = phi i32 [ %33, %38 ], [ %.116, %101 ]
  %46 = phi i32 [ 0, %38 ], [ %.0, %101 ]
  %47 = phi i32 [ %34, %38 ], [ %104, %101 ]
  %48 = phi ptr [ %42, %38 ], [ %103, %101 ]
  %49 = phi i32 [ %43, %38 ], [ %102, %101 ]
  %50 = icmp eq i32 %46, 0
  br i1 %50, label %58, label %51

51:                                               ; preds = %45
  %52 = getelementptr inbounds i8, ptr %48, i64 16
  %53 = load i32, ptr %52, align 4
  %54 = add i32 %53, %46
  %55 = icmp slt i32 %54, %1
  br i1 %55, label %56, label %pcpu_next_fit_region.exit

56:                                               ; preds = %51
  %57 = icmp eq i32 %53, 1024
  br i1 %57, label %101, label %58

58:                                               ; preds = %56, %45
  %59 = getelementptr inbounds i8, ptr %48, i64 8
  %60 = load i32, ptr %59, align 4
  %61 = icmp eq i32 %60, 0
  br i1 %61, label %92, label %62

62:                                               ; preds = %58
  %63 = getelementptr inbounds i8, ptr %48, i64 12
  %64 = load i32, ptr %63, align 4
  %65 = add i32 %64, %8
  %66 = and i32 %65, %10
  %67 = icmp slt i32 %64, %49
  %68 = sub i32 %1, %64
  %69 = add i32 %68, %66
  %70 = icmp slt i32 %60, %69
  %71 = or i1 %67, %70
  br i1 %71, label %92, label %72

72:                                               ; preds = %62
  %73 = load i32, ptr %48, align 4
  %74 = icmp eq i32 %73, 0
  br i1 %74, label %83, label %75

75:                                               ; preds = %72
  %76 = getelementptr inbounds i8, ptr %48, i64 4
  %77 = load i32, ptr %76, align 4
  %78 = icmp sgt i32 %64, %77
  %79 = icmp slt i32 %73, %1
  %80 = and i1 %79, %78
  br i1 %80, label %81, label %83

81:                                               ; preds = %75
  %82 = add i32 %77, %73
  br label %86

83:                                               ; preds = %75, %72
  %84 = getelementptr inbounds i8, ptr %48, i64 24
  %85 = load i32, ptr %84, align 4
  br label %86

86:                                               ; preds = %83, %81
  %87 = phi i32 [ %82, %81 ], [ %85, %83 ]
  %88 = add i32 %66, %1
  %89 = sub i32 %88, %87
  %90 = shl i32 %47, 10
  %91 = add i32 %87, %90
  br label %pcpu_next_fit_region.exit

92:                                               ; preds = %62, %58
  %93 = getelementptr inbounds i8, ptr %48, i64 20
  %94 = load i32, ptr %93, align 4
  %95 = sub i32 %44, %94
  %96 = and i32 %95, %10
  %97 = sub i32 1024, %96
  %98 = shl i32 %47, 10
  %99 = add i32 %96, %98
  %100 = icmp slt i32 %97, %1
  br i1 %100, label %101, label %pcpu_next_fit_region.exit

101:                                              ; preds = %92, %56
  %.116 = phi i32 [ %99, %92 ], [ %.015, %56 ]
  %.0 = phi i32 [ %97, %92 ], [ %54, %56 ]
  %102 = phi i32 [ 0, %92 ], [ %49, %56 ]
  %103 = getelementptr i8, ptr %48, i64 32
  %104 = add i32 %47, 1
  %exitcond.not = icmp eq i32 %104, %36
  br i1 %exitcond.not, label %.loopexit11.i, label %45, !llvm.loop !149

.loopexit11.i:                                    ; preds = %101, %32
  %.1 = phi i32 [ 0, %32 ], [ %.0, %101 ]
  %105 = shl i32 %36, 10
  br label %pcpu_next_fit_region.exit

pcpu_next_fit_region.exit:                        ; preds = %51, %92, %86, %.loopexit11.i
  %.217 = phi i32 [ %105, %.loopexit11.i ], [ %91, %86 ], [ %.015, %51 ], [ %99, %92 ]
  %.3 = phi i32 [ %.1, %.loopexit11.i ], [ %89, %86 ], [ %54, %51 ], [ %97, %92 ]
  %106 = shl i32 %36, 10
  %107 = icmp slt i32 %.217, %106
  %108 = and i1 %107, %3
  br i1 %108, label %109, label %.loopexit

109:                                              ; preds = %pcpu_next_fit_region.exit
  %110 = getelementptr inbounds i8, ptr %0, i64 120
  %111 = getelementptr inbounds i8, ptr %0, i64 80
  %112 = add i32 %7, 1023
  br label %113

113:                                              ; preds = %pcpu_next_fit_region.exit6, %109
  %.4 = phi i32 [ %.3, %109 ], [ %.8, %pcpu_next_fit_region.exit6 ]
  %114 = phi i32 [ %.217, %109 ], [ %.520, %pcpu_next_fit_region.exit6 ]
  %115 = add i32 %114, %.4
  %116 = shl i32 %115, 2
  %117 = sext i32 %116 to i64
  %118 = add nsw i64 %117, 4095
  %119 = lshr i64 %118, 12
  %120 = trunc i64 %119 to i32
  %121 = and i64 %119, 4294967295
  %122 = shl i32 %114, 2
  %123 = ashr i32 %122, 12
  %124 = zext i32 %123 to i64
  %125 = tail call i64 @_find_next_zero_bit(ptr noundef %110, i64 noundef %121, i64 noundef %124) #23
  %126 = trunc i64 %125 to i32
  %127 = icmp ult i32 %126, %120
  br i1 %127, label %128, label %..loopexit.loopexit_crit_edge

..loopexit.loopexit_crit_edge:                    ; preds = %113
  %.pre.pre = load i32, ptr %35, align 4
  %.pre60 = shl i32 %.pre.pre, 10
  br label %.loopexit

128:                                              ; preds = %113
  %129 = add i64 %125, 1
  %130 = and i64 %129, 4294967295
  %131 = tail call i64 @_find_next_bit(ptr noundef %110, i64 noundef %121, i64 noundef %130) #23
  %132 = trunc i64 %131 to i32
  %133 = shl i32 %132, 10
  %134 = ashr exact i32 %133, 10
  %135 = load i32, ptr %35, align 4
  %136 = icmp slt i32 %134, %135
  br i1 %136, label %137, label %.loopexit11.i5

137:                                              ; preds = %128
  %138 = load ptr, ptr %111, align 16
  %139 = shl i64 %131, 42
  %140 = ashr exact i64 %139, 42
  %141 = getelementptr %struct.pcpu_block_md, ptr %138, i64 %140
  br label %142

142:                                              ; preds = %197, %137
  %.318 = phi i32 [ %133, %137 ], [ %.419, %197 ]
  %143 = phi i32 [ 0, %137 ], [ %.5, %197 ]
  %144 = phi i32 [ %134, %137 ], [ %199, %197 ]
  %145 = phi ptr [ %141, %137 ], [ %198, %197 ]
  %146 = icmp eq i32 %143, 0
  br i1 %146, label %154, label %147

147:                                              ; preds = %142
  %148 = getelementptr inbounds i8, ptr %145, i64 16
  %149 = load i32, ptr %148, align 4
  %150 = add i32 %149, %143
  %151 = icmp slt i32 %150, %1
  br i1 %151, label %152, label %pcpu_next_fit_region.exit6

152:                                              ; preds = %147
  %153 = icmp eq i32 %149, 1024
  br i1 %153, label %197, label %154

154:                                              ; preds = %152, %142
  %155 = getelementptr inbounds i8, ptr %145, i64 8
  %156 = load i32, ptr %155, align 4
  %157 = icmp eq i32 %156, 0
  br i1 %157, label %188, label %158

158:                                              ; preds = %154
  %159 = getelementptr inbounds i8, ptr %145, i64 12
  %160 = load i32, ptr %159, align 4
  %161 = add i32 %160, %8
  %162 = and i32 %161, %10
  %163 = icmp slt i32 %160, 0
  %164 = sub i32 %1, %160
  %165 = add i32 %164, %162
  %166 = icmp slt i32 %156, %165
  %167 = or i1 %163, %166
  br i1 %167, label %188, label %168

168:                                              ; preds = %158
  %169 = load i32, ptr %145, align 4
  %170 = icmp eq i32 %169, 0
  br i1 %170, label %179, label %171

171:                                              ; preds = %168
  %172 = getelementptr inbounds i8, ptr %145, i64 4
  %173 = load i32, ptr %172, align 4
  %174 = icmp sgt i32 %160, %173
  %175 = icmp slt i32 %169, %1
  %176 = and i1 %175, %174
  br i1 %176, label %177, label %179

177:                                              ; preds = %171
  %178 = add i32 %173, %169
  br label %182

179:                                              ; preds = %171, %168
  %180 = getelementptr inbounds i8, ptr %145, i64 24
  %181 = load i32, ptr %180, align 4
  br label %182

182:                                              ; preds = %179, %177
  %183 = phi i32 [ %178, %177 ], [ %181, %179 ]
  %184 = add i32 %162, %1
  %185 = sub i32 %184, %183
  %186 = shl i32 %144, 10
  %187 = add i32 %183, %186
  br label %pcpu_next_fit_region.exit6

188:                                              ; preds = %158, %154
  %189 = getelementptr inbounds i8, ptr %145, i64 20
  %190 = load i32, ptr %189, align 4
  %191 = sub i32 %112, %190
  %192 = and i32 %191, %10
  %193 = sub i32 1024, %192
  %194 = shl i32 %144, 10
  %195 = add i32 %192, %194
  %196 = icmp slt i32 %193, %1
  br i1 %196, label %197, label %pcpu_next_fit_region.exit6

197:                                              ; preds = %188, %152
  %.419 = phi i32 [ %195, %188 ], [ %.318, %152 ]
  %.5 = phi i32 [ %193, %188 ], [ %150, %152 ]
  %198 = getelementptr i8, ptr %145, i64 32
  %199 = add i32 %144, 1
  %exitcond57.not = icmp eq i32 %199, %135
  br i1 %exitcond57.not, label %.loopexit11.i5, label %142, !llvm.loop !149

.loopexit11.i5:                                   ; preds = %197, %128
  %.6 = phi i32 [ 0, %128 ], [ %.5, %197 ]
  %200 = shl i32 %135, 10
  br label %pcpu_next_fit_region.exit6

pcpu_next_fit_region.exit6:                       ; preds = %147, %188, %182, %.loopexit11.i5
  %.520 = phi i32 [ %200, %.loopexit11.i5 ], [ %187, %182 ], [ %.318, %147 ], [ %195, %188 ]
  %.8 = phi i32 [ %.6, %.loopexit11.i5 ], [ %185, %182 ], [ %150, %147 ], [ %193, %188 ]
  %201 = shl i32 %135, 10
  %202 = icmp slt i32 %.520, %201
  br i1 %202, label %113, label %.loopexit, !llvm.loop !150

.loopexit:                                        ; preds = %pcpu_next_fit_region.exit6, %..loopexit.loopexit_crit_edge, %pcpu_next_fit_region.exit
  %.pre-phi = phi i32 [ %106, %pcpu_next_fit_region.exit ], [ %.pre60, %..loopexit.loopexit_crit_edge ], [ %201, %pcpu_next_fit_region.exit6 ]
  %203 = phi i32 [ %.217, %pcpu_next_fit_region.exit ], [ %114, %..loopexit.loopexit_crit_edge ], [ %.520, %pcpu_next_fit_region.exit6 ]
  %204 = icmp eq i32 %203, %.pre-phi
  %205 = select i1 %204, i32 -1, i32 %203
  br label %206

206:                                              ; preds = %.loopexit, %4
  %207 = phi i32 [ -1, %4 ], [ %205, %.loopexit ]
  ret i32 %207
}